(dp0
S'labels_index'
p1
(dp2
Vi_action
p3
I8
sVperception
p4
I3
sVreporting
p5
I6
sVi_state
p6
I5
sS'n/a'
p7
I0
sVaspectual
p8
I7
sVstate
p9
I2
sVaction
p10
I1
sVlight_predicate
p11
I4
ssS'indexed_features'
p12
(dp13
Vstruct-P
p14
(dp15
Vd-
p16
I33
sVX-Xx
p17
I46
sVXxX
p18
I8
sVxd
p19
I20
sVdxXx
p20
I26
sVd-X
p21
I47
sVXx-X
p22
I10
sVXxXxXx
p23
I27
sVX
p24
I0
sVx-x-x-x
p25
I17
sVdxd
p26
I42
sVXdX
p27
I21
sVXxX-x
p28
I45
sVx-x-x-x-x-d-x-x-d-x
p29
I48
sVdxX
p30
I37
sVdXx
p31
I36
sV-
p32
I2
sVXx
p33
I3
sVx-x-x-x-x-x-x-x-
p34
I14
sVxX
p35
I24
sVXdXd
p36
I38
sVXxd
p37
I9
sVd-x
p38
I34
sVx-x
p39
I19
sVx-x-x-x-x-
p40
I23
sVXdx
p41
I39
sVX-X-X
p42
I22
sVx-
p43
I29
sVXxXxXxXx
p44
I18
sVXx-x
p45
I13
sVx-x-x
p46
I5
sVx-X
p47
I30
sVdx
p48
I11
sVx
p49
I1
sVx-x-x-x-xd-xd-x
p50
I44
sVxdx
p51
I35
sVXxXx
p52
I4
sVd
p53
I6
sVx-d
p54
I31
sVxXx
p55
I15
sVXx-Xd
p56
I41
sVXd
p57
I7
sVdxdxd
p58
I25
sVdX-
p59
I32
sVX-X
p60
I40
sVdX
p61
I12
sVd-d-d
p62
I43
sVXxXd
p63
I28
sVX-x
p64
I16
sss.